target datalayout = "e-m:e-p270:32:32-p271:32:32-p272:64:64-i64:64-i128:128-f80:128-n8:16:32:64-S128"
target triple = "x86_64-pc-linux-gnu"

%struct.zstream = type { i64, i64, i64, i64, %struct.z_stream_s, ptr }
%struct.z_stream_s = type { ptr, i32, i64, ptr, i32, i64, ptr, ptr, ptr, ptr, ptr, i32, i64, i64 }
%struct.gzfile = type { %struct.zstream, i64, i32, i32, i64, i64, i64, i64, i32, i32, i64, ptr, ptr, ptr, ptr, i64, i64 }

@id_input = internal global i64 0, align 8

; Function Attrs: inlinehint nounwind sspstrong willreturn memory(none) uwtable
define internal zeroext i1 @RB_NIL_P(i64 noundef %0) #5 {
  %2 = alloca i64, align 8
  store i64 %0, ptr %2, align 8, !tbaa !6
  %3 = load i64, ptr %2, align 8, !tbaa !6
  %4 = icmp eq i64 %3, 4
  ret i1 %4
}

; Function Attrs: noreturn nounwind sspstrong uwtable
define internal void @gzfile_raise(ptr noundef %0, i64 noundef %1, ptr noundef %2) #12 {
  %4 = alloca ptr, align 8
  %5 = alloca i64, align 8
  %6 = alloca ptr, align 8
  %7 = alloca i64, align 8
  store ptr %0, ptr %4, align 8, !tbaa !57
  store i64 %1, ptr %5, align 8, !tbaa !6
  store ptr %2, ptr %6, align 8, !tbaa !19
  call void @llvm.lifetime.start.p0(i64 8, ptr %7) #23
  %8 = load i64, ptr %5, align 8, !tbaa !6
  %9 = load ptr, ptr %6, align 8, !tbaa !19
  %10 = call i64 @rb_exc_new_cstr(i64 noundef %8, ptr noundef %9)
  store i64 %10, ptr %7, align 8, !tbaa !6
  %11 = load ptr, ptr %4, align 8, !tbaa !57
  %12 = getelementptr inbounds nuw %struct.gzfile, ptr %11, i32 0, i32 0
  %13 = getelementptr inbounds nuw %struct.zstream, ptr %12, i32 0, i32 2
  %14 = load i64, ptr %13, align 8, !tbaa !76
  %15 = call zeroext i1 @RB_NIL_P(i64 noundef %14) #24
  br i1 %15, label %25, label %16

16:                                               ; preds = %3
  %17 = load i64, ptr %7, align 8, !tbaa !6
  %18 = load i64, ptr @id_input, align 8, !tbaa !6
  %19 = load ptr, ptr %4, align 8, !tbaa !57
  %20 = getelementptr inbounds nuw %struct.gzfile, ptr %19, i32 0, i32 0
  %21 = getelementptr inbounds nuw %struct.zstream, ptr %20, i32 0, i32 2
  %22 = load i64, ptr %21, align 8, !tbaa !76
  %23 = call i64 @rb_str_resurrect(i64 noundef %22)
  %24 = call i64 @rb_ivar_set(i64 noundef %17, i64 noundef %18, i64 noundef %23)
  br label %25

25:                                               ; preds = %16, %3
  %26 = load i64, ptr %7, align 8, !tbaa !6
  call void @rb_exc_raise(i64 noundef %26) #26
  unreachable
}