; Function Attrs: noreturn nounwind sspstrong uwtable
define internal fastcc void @gzfile_raise(ptr noundef readonly captures(none) %0, i64 noundef %1, ptr noundef %2) unnamed_addr #5 {
  %4 = tail call i64 @rb_exc_new_cstr(i64 noundef %1, ptr noundef %2) #18
  %5 = getelementptr inbounds nuw i8, ptr %0, i64 16
  %6 = load i64, ptr %5, align 8, !tbaa !154
  %7 = icmp eq i64 %6, 4
  br i1 %7, label %12, label %8

8:                                                ; preds = %3
  %9 = load i64, ptr @id_input, align 8, !tbaa !6
  %10 = tail call i64 @rb_str_resurrect(i64 noundef %6) #18
  %11 = tail call i64 @rb_ivar_set(i64 noundef %4, i64 noundef %9, i64 noundef %10) #18
  br label %12

12:                                               ; preds = %8, %3
  tail call void @rb_exc_raise(i64 noundef %4) #19
  unreachable
}